target datalayout = "e-m:e-p270:32:32-p271:32:32-p272:64:64-i64:64-i128:128-f80:128-n8:16:32:64-S128"
target triple = "x86_64-pc-linux-gnu"

%struct._zend_phpdbg_globals = type { [11 x %struct._zend_array], %struct._zend_array, %struct._zend_array, ptr, ptr, %struct.phpdbg_frame_t, i32, ptr, %struct.phpdbg_lexer_data, ptr, %struct.sigaction, i32, i64, %struct.phpdbg_btree, %struct.phpdbg_btree, %struct._zend_array, %struct._zend_array, %struct._zend_array, %struct._zend_array, ptr, ptr, i8, ptr, ptr, ptr, i64, ptr, %struct._zval_struct, i32, i32, i8, i8, ptr, ptr, ptr, %struct._zend_array, ptr, ptr, ptr, [3 x %struct.anon.8], ptr, %struct.anon.9, i64, [2 x ptr], [3 x ptr], ptr, i8, ptr, ptr, [500 x i8], i32, %struct.phpdbg_signal_safe_mem, ptr, i64, ptr, i64 }
%struct.phpdbg_frame_t = type { i32, ptr, ptr }
%struct.phpdbg_lexer_data = type { i32, ptr, ptr, ptr, ptr, i32 }
%struct.sigaction = type { %union.anon.7, %struct.__sigset_t, i32, ptr }
%union.anon.7 = type { ptr }
%struct.__sigset_t = type { [16 x i64] }
%struct.phpdbg_btree = type { i64, i64, i8, ptr }
%struct._zval_struct = type { %union._zend_value, %union.anon, %union.anon.2 }
%union._zend_value = type { i64 }
%union.anon = type { i32 }
%union.anon.2 = type { i32 }
%struct._zend_array = type { %struct._zend_refcounted_h, %union.anon.4, i32, %union.anon.6, i32, i32, i32, i32, i64, ptr }
%struct._zend_refcounted_h = type { i32, %union.anon.3 }
%union.anon.3 = type { i32 }
%union.anon.4 = type { i32 }
%union.anon.6 = type { ptr }
%struct.anon.8 = type { i32 }
%struct.anon.9 = type { i8, i32, i32, ptr, i32 }
%struct.phpdbg_signal_safe_mem = type { ptr, i8, ptr, ptr }
%struct._Bucket = type { %struct._zval_struct, i64, ptr }
%struct.phpdbg_btree_result = type { i64, ptr }
%struct._phpdbg_watchpoint_t = type { %union.anon.27, i64, i32, ptr, %struct._zend_array, ptr, %union.anon.28 }
%union.anon.27 = type { ptr }
%union.anon.28 = type { %struct._zend_array }
%struct._phpdbg_watch_element = type { i32, ptr, i8, ptr, ptr, %struct._zend_array, ptr, ptr, ptr, %union.anon.29 }
%union.anon.29 = type { %struct._zend_array }
%struct.phpdbg_watch_ht_info = type { %struct._phpdbg_watchpoint_t, ptr, %struct._zend_array }

@phpdbg_globals = external global %struct._zend_phpdbg_globals, align 8

; Function Attrs: nounwind uwtable
define hidden void @phpdbg_watch_efree(ptr noundef %0) #0 {
  %2 = alloca ptr, align 8
  %3 = alloca ptr, align 8
  %4 = alloca ptr, align 8
  %5 = alloca ptr, align 8
  %6 = alloca ptr, align 8
  %7 = alloca ptr, align 8
  %8 = alloca ptr, align 8
  %9 = alloca ptr, align 8
  %10 = alloca ptr, align 8
  %11 = alloca ptr, align 8
  %12 = alloca ptr, align 8
  %13 = alloca ptr, align 8
  %14 = alloca i64, align 8
  %15 = alloca ptr, align 8
  store ptr %0, ptr %5, align 8
  store ptr getelementptr inbounds (%struct._zend_phpdbg_globals, ptr @phpdbg_globals, i32 0, i32 15), ptr %3, align 8
  %16 = load ptr, ptr %3, align 8
  %17 = getelementptr inbounds %struct._zend_array, ptr %16, i32 0, i32 5
  %18 = load i32, ptr %17, align 4
  %19 = icmp ne i32 %18, 0
  br i1 %19, label %20, label %121

20:                                               ; preds = %1
  %21 = load ptr, ptr %5, align 8
  %22 = ptrtoint ptr %21 to i64
  %23 = call ptr @phpdbg_btree_find(ptr noundef getelementptr inbounds (%struct._zend_phpdbg_globals, ptr @phpdbg_globals, i32 0, i32 13), i64 noundef %22)
  store ptr %23, ptr %6, align 8
  %24 = icmp ne ptr %23, null
  br i1 %24, label %25, label %100

25:                                               ; preds = %20
  %26 = load ptr, ptr %6, align 8
  %27 = getelementptr inbounds %struct.phpdbg_btree_result, ptr %26, i32 0, i32 1
  %28 = load ptr, ptr %27, align 8
  store ptr %28, ptr %7, align 8
  %29 = load ptr, ptr %7, align 8
  %30 = getelementptr inbounds %struct._phpdbg_watchpoint_t, ptr %29, i32 0, i32 2
  %31 = load i32, ptr %30, align 8
  %32 = icmp ne i32 %31, 4
  br i1 %32, label %33, label %35

33:                                               ; preds = %25
  %34 = load ptr, ptr %7, align 8
  call void @phpdbg_remove_watchpoint(ptr noundef %34)
  br label %99

35:                                               ; preds = %25
  %36 = load ptr, ptr %7, align 8
  store ptr %36, ptr %9, align 8
  br label %37

37:                                               ; preds = %35
  %38 = load ptr, ptr %9, align 8
  %39 = getelementptr inbounds %struct.phpdbg_watch_ht_info, ptr %38, i32 0, i32 2
  store ptr %39, ptr %10, align 8
  %40 = load ptr, ptr %10, align 8
  %41 = getelementptr inbounds %struct._zend_array, ptr %40, i32 0, i32 3
  %42 = load ptr, ptr %41, align 8
  %43 = getelementptr inbounds %struct._Bucket, ptr %42, i64 0
  store ptr %43, ptr %11, align 8
  %44 = load ptr, ptr %10, align 8
  %45 = getelementptr inbounds %struct._zend_array, ptr %44, i32 0, i32 3
  %46 = load ptr, ptr %45, align 8
  %47 = load ptr, ptr %10, align 8
  %48 = getelementptr inbounds %struct._zend_array, ptr %47, i32 0, i32 4
  %49 = load i32, ptr %48, align 8
  %50 = zext i32 %49 to i64
  %51 = getelementptr inbounds %struct._Bucket, ptr %46, i64 %50
  store ptr %51, ptr %12, align 8
  %52 = load ptr, ptr %10, align 8
  %53 = getelementptr inbounds %struct._zend_array, ptr %52, i32 0, i32 1
  %54 = load i32, ptr %53, align 8
  %55 = and i32 %54, 4
  %56 = icmp ne i32 %55, 0
  %57 = xor i1 %56, true
  call void @llvm.assume(i1 %57)
  br label %58

58:                                               ; preds = %94, %37
  %59 = load ptr, ptr %11, align 8
  %60 = load ptr, ptr %12, align 8
  %61 = icmp ne ptr %59, %60
  br i1 %61, label %62, label %97

62:                                               ; preds = %58
  %63 = load ptr, ptr %11, align 8
  %64 = getelementptr inbounds %struct._Bucket, ptr %63, i32 0, i32 0
  store ptr %64, ptr %13, align 8
  %65 = load ptr, ptr %13, align 8
  store ptr %65, ptr %2, align 8
  %66 = load ptr, ptr %2, align 8
  %67 = getelementptr inbounds %struct._zval_struct, ptr %66, i32 0, i32 1
  %68 = load i8, ptr %67, align 8
  %69 = zext i8 %68 to i32
  %70 = icmp eq i32 %69, 0
  %71 = xor i1 %70, true
  %72 = xor i1 %71, true
  %73 = zext i1 %72 to i32
  %74 = sext i32 %73 to i64
  %75 = icmp ne i64 %74, 0
  br i1 %75, label %76, label %77

76:                                               ; preds = %62
  br label %94

77:                                               ; preds = %62
  %78 = load ptr, ptr %13, align 8
  %79 = getelementptr inbounds %struct._zval_struct, ptr %78, i32 0, i32 0
  %80 = load ptr, ptr %79, align 8
  store ptr %80, ptr %8, align 8
  %81 = load ptr, ptr %9, align 8
  %82 = getelementptr inbounds %struct.phpdbg_watch_ht_info, ptr %81, i32 0, i32 2
  store ptr %82, ptr %4, align 8
  %83 = load ptr, ptr %4, align 8
  %84 = getelementptr inbounds %struct._zend_array, ptr %83, i32 0, i32 5
  %85 = load i32, ptr %84, align 4
  %86 = zext i32 %85 to i64
  store i64 %86, ptr %14, align 8
  %87 = load ptr, ptr %8, align 8
  %88 = getelementptr inbounds %struct._phpdbg_watch_element, ptr %87, i32 0, i32 1
  %89 = load ptr, ptr %88, align 8
  call void @phpdbg_remove_watchpoint(ptr noundef %89)
  %90 = load i64, ptr %14, align 8
  %91 = icmp eq i64 %90, 1
  br i1 %91, label %92, label %93

92:                                               ; preds = %77
  br label %97

93:                                               ; preds = %77
  br label %94

94:                                               ; preds = %93, %76
  %95 = load ptr, ptr %11, align 8
  %96 = getelementptr inbounds %struct._Bucket, ptr %95, i32 1
  store ptr %96, ptr %11, align 8
  br label %58

97:                                               ; preds = %92, %58
  br label %98

98:                                               ; preds = %97
  br label %99

99:                                               ; preds = %98, %33
  br label %100

100:                                              ; preds = %99, %20
  %101 = load ptr, ptr %5, align 8
  %102 = ptrtoint ptr %101 to i64
  %103 = add i64 12, %102
  %104 = call ptr @phpdbg_btree_find(ptr noundef getelementptr inbounds (%struct._zend_phpdbg_globals, ptr @phpdbg_globals, i32 0, i32 13), i64 noundef %103)
  store ptr %104, ptr %6, align 8
  %105 = icmp ne ptr %104, null
  br i1 %105, label %106, label %117

106:                                              ; preds = %100
  %107 = load ptr, ptr %6, align 8
  %108 = getelementptr inbounds %struct.phpdbg_btree_result, ptr %107, i32 0, i32 1
  %109 = load ptr, ptr %108, align 8
  store ptr %109, ptr %15, align 8
  %110 = load ptr, ptr %15, align 8
  %111 = getelementptr inbounds %struct._phpdbg_watchpoint_t, ptr %110, i32 0, i32 2
  %112 = load i32, ptr %111, align 8
  %113 = icmp eq i32 %112, 1
  br i1 %113, label %114, label %116

114:                                              ; preds = %106
  %115 = load ptr, ptr %15, align 8
  call void @phpdbg_remove_watchpoint(ptr noundef %115)
  br label %116

116:                                              ; preds = %114, %106
  br label %117

117:                                              ; preds = %116, %100
  %118 = load ptr, ptr %5, align 8
  %119 = ptrtoint ptr %118 to i64
  %120 = call i32 @zend_hash_index_del(ptr noundef getelementptr inbounds (%struct._zend_phpdbg_globals, ptr @phpdbg_globals, i32 0, i32 18), i64 noundef %119)
  br label %121

121:                                              ; preds = %117, %1
  %122 = load ptr, ptr getelementptr inbounds (%struct._zend_phpdbg_globals, ptr @phpdbg_globals, i32 0, i32 22), align 8
  %123 = icmp ne ptr %122, null
  br i1 %123, label %124, label %127

124:                                              ; preds = %121
  %125 = load ptr, ptr getelementptr inbounds (%struct._zend_phpdbg_globals, ptr @phpdbg_globals, i32 0, i32 22), align 8
  %126 = load ptr, ptr %5, align 8
  call void %125(ptr noundef %126)
  br label %127

127:                                              ; preds = %124, %121
  ret void
}