; Function Attrs: nounwind uwtable
define hidden void @phpdbg_watch_efree(ptr noundef %0) local_unnamed_addr #0 {
  %2 = load i32, ptr getelementptr inbounds (%struct._zend_phpdbg_globals, ptr @phpdbg_globals, i64 0, i32 15, i32 5), align 4
  %.not = icmp eq i32 %2, 0
  br i1 %.not, label %45, label %3

3:                                                ; preds = %1
  %4 = ptrtoint ptr %0 to i64
  %5 = tail call ptr @phpdbg_btree_find(ptr noundef nonnull getelementptr inbounds (%struct._zend_phpdbg_globals, ptr @phpdbg_globals, i64 0, i32 13), i64 noundef %4) #17
  %.not30 = icmp eq ptr %5, null
  br i1 %.not30, label %.loopexit, label %6

6:                                                ; preds = %3
  %7 = getelementptr inbounds i8, ptr %5, i64 8
  %8 = load ptr, ptr %7, align 8
  %9 = getelementptr inbounds i8, ptr %8, i64 16
  %10 = load i32, ptr %9, align 8
  %.not31 = icmp eq i32 %10, 4
  br i1 %.not31, label %12, label %11

11:                                               ; preds = %6
  tail call void @phpdbg_remove_watchpoint(ptr noundef nonnull %8)
  br label %.loopexit

12:                                               ; preds = %6
  %13 = getelementptr inbounds i8, ptr %8, i64 176
  %14 = load ptr, ptr %13, align 8
  %15 = getelementptr inbounds i8, ptr %8, i64 184
  %16 = load i32, ptr %15, align 8
  %17 = zext i32 %16 to i64
  %18 = getelementptr inbounds %struct._Bucket, ptr %14, i64 %17
  %19 = getelementptr inbounds i8, ptr %8, i64 168
  %20 = load i32, ptr %19, align 8
  %21 = and i32 %20, 4
  %.not32 = icmp eq i32 %21, 0
  tail call void @llvm.assume(i1 %.not32)
  %.not3336 = icmp eq i32 %16, 0
  br i1 %.not3336, label %.loopexit, label %.lr.ph

.lr.ph:                                           ; preds = %12
  %22 = getelementptr inbounds i8, ptr %8, i64 188
  br label %.backedge

.backedge:                                        ; preds = %.backedge.backedge, %.lr.ph
  %.037 = phi ptr [ %14, %.lr.ph ], [ %.037.be, %.backedge.backedge ]
  %23 = getelementptr inbounds i8, ptr %.037, i64 8
  %24 = load i8, ptr %23, align 8
  %25 = icmp eq i8 %24, 0
  br i1 %25, label %33, label %26

26:                                               ; preds = %.backedge
  %27 = load ptr, ptr %.037, align 8
  %28 = load i32, ptr %22, align 4
  %29 = getelementptr inbounds i8, ptr %27, i64 8
  %30 = load ptr, ptr %29, align 8
  tail call void @phpdbg_remove_watchpoint(ptr noundef %30)
  %31 = icmp eq i32 %28, 1
  %32 = getelementptr inbounds i8, ptr %.037, i64 32
  %.not33 = icmp eq ptr %32, %18
  %or.cond = select i1 %31, i1 true, i1 %.not33
  br i1 %or.cond, label %.loopexit, label %.backedge.backedge

33:                                               ; preds = %.backedge
  %.old = getelementptr inbounds i8, ptr %.037, i64 32
  %.not33.old = icmp eq ptr %.old, %18
  br i1 %.not33.old, label %.loopexit, label %.backedge.backedge

.backedge.backedge:                               ; preds = %33, %26
  %.037.be = phi ptr [ %.old, %33 ], [ %32, %26 ]
  br label %.backedge

.loopexit:                                        ; preds = %26, %33, %12, %11, %3
  %34 = add i64 %4, 12
  %35 = tail call ptr @phpdbg_btree_find(ptr noundef nonnull getelementptr inbounds (%struct._zend_phpdbg_globals, ptr @phpdbg_globals, i64 0, i32 13), i64 noundef %34) #17
  %.not34 = icmp eq ptr %35, null
  br i1 %.not34, label %43, label %36

36:                                               ; preds = %.loopexit
  %37 = getelementptr inbounds i8, ptr %35, i64 8
  %38 = load ptr, ptr %37, align 8
  %39 = getelementptr inbounds i8, ptr %38, i64 16
  %40 = load i32, ptr %39, align 8
  %41 = icmp eq i32 %40, 1
  br i1 %41, label %42, label %43

42:                                               ; preds = %36
  tail call void @phpdbg_remove_watchpoint(ptr noundef nonnull %38)
  br label %43

43:                                               ; preds = %36, %42, %.loopexit
  %44 = tail call i32 @zend_hash_index_del(ptr noundef nonnull getelementptr inbounds (%struct._zend_phpdbg_globals, ptr @phpdbg_globals, i64 0, i32 18), i64 noundef %4) #17
  br label %45

45:                                               ; preds = %43, %1
  %46 = load ptr, ptr getelementptr inbounds (%struct._zend_phpdbg_globals, ptr @phpdbg_globals, i64 0, i32 22), align 8
  %.not35 = icmp eq ptr %46, null
  br i1 %.not35, label %48, label %47

47:                                               ; preds = %45
  tail call void %46(ptr noundef %0) #17
  br label %48

48:                                               ; preds = %47, %45
  ret void
}